target datalayout = "e-m:e-p270:32:32-p271:32:32-p272:64:64-i64:64-i128:128-f80:128-n8:16:32:64-S128"
target triple = "x86_64-pc-linux-gnu"

@.str.99 = private unnamed_addr constant [2 x i8] c":\00", align 1

; Function Attrs: mustprogress nounwind uwtable
define internal noundef ptr @_ZL11path_appendPcPKcPm(ptr noundef %0, ptr noundef %1, ptr noundef %2) #0 {
  %4 = alloca ptr, align 8
  %5 = alloca ptr, align 8
  %6 = alloca ptr, align 8
  %7 = alloca ptr, align 8
  %8 = alloca ptr, align 8
  %9 = alloca i64, align 8
  %10 = alloca i64, align 8
  %11 = alloca i64, align 8
  %12 = alloca ptr, align 8
  store ptr %0, ptr %5, align 8
  store ptr %1, ptr %6, align 8
  store ptr %2, ptr %7, align 8
  store i64 0, ptr %10, align 8
  store i64 0, ptr %11, align 8
  store ptr @.str.99, ptr %12, align 8
  %13 = load ptr, ptr %6, align 8
  %14 = icmp eq ptr null, %13
  br i1 %14, label %15, label %17

15:                                               ; preds = %3
  %16 = load ptr, ptr %5, align 8
  store ptr %16, ptr %4, align 8
  br label %75

17:                                               ; preds = %3
  %18 = load ptr, ptr %6, align 8
  %19 = call i64 @strlen(ptr noundef %18) #7
  store i64 %19, ptr %10, align 8
  %20 = load i64, ptr %10, align 8
  %21 = icmp eq i64 0, %20
  br i1 %21, label %22, label %24

22:                                               ; preds = %17
  %23 = load ptr, ptr %5, align 8
  store ptr %23, ptr %4, align 8
  br label %75

24:                                               ; preds = %17
  %25 = load ptr, ptr %5, align 8
  %26 = icmp ne ptr null, %25
  br i1 %26, label %27, label %30

27:                                               ; preds = %24
  %28 = load ptr, ptr %5, align 8
  %29 = call i64 @strlen(ptr noundef %28) #7
  store i64 %29, ptr %11, align 8
  br label %30

30:                                               ; preds = %27, %24
  %31 = load i64, ptr %11, align 8
  %32 = load i64, ptr %10, align 8
  %33 = add i64 %31, %32
  %34 = load ptr, ptr %12, align 8
  %35 = call i64 @strlen(ptr noundef %34) #7
  %36 = add i64 %33, %35
  %37 = add i64 %36, 1
  store i64 %37, ptr %9, align 8
  %38 = load ptr, ptr %7, align 8
  %39 = load i64, ptr %38, align 8
  %40 = load i64, ptr %9, align 8
  %41 = icmp ult i64 %39, %40
  br i1 %41, label %42, label %63

42:                                               ; preds = %30
  %43 = load i64, ptr %9, align 8
  %44 = mul i64 2, %43
  %45 = call noalias ptr @calloc(i64 noundef %44, i64 noundef 1) #26
  store ptr %45, ptr %8, align 8
  %46 = load ptr, ptr %8, align 8
  %47 = icmp eq ptr null, %46
  br i1 %47, label %48, label %50

48:                                               ; preds = %42
  %49 = load ptr, ptr %5, align 8
  call void @free(ptr noundef %49) #19
  store ptr null, ptr %4, align 8
  br label %75

50:                                               ; preds = %42
  %51 = load i64, ptr %9, align 8
  %52 = mul i64 2, %51
  %53 = load ptr, ptr %7, align 8
  store i64 %52, ptr %53, align 8
  %54 = load ptr, ptr %5, align 8
  %55 = icmp ne ptr %54, null
  br i1 %55, label %56, label %60

56:                                               ; preds = %50
  %57 = load ptr, ptr %8, align 8
  %58 = load ptr, ptr %5, align 8
  %59 = call ptr @strcpy(ptr noundef %57, ptr noundef %58) #19
  br label %60

60:                                               ; preds = %56, %50
  %61 = load ptr, ptr %5, align 8
  call void @free(ptr noundef %61) #19
  %62 = load ptr, ptr %8, align 8
  store ptr %62, ptr %5, align 8
  br label %63

63:                                               ; preds = %60, %30
  %64 = load i64, ptr %11, align 8
  %65 = icmp ne i64 0, %64
  br i1 %65, label %66, label %70

66:                                               ; preds = %63
  %67 = load ptr, ptr %5, align 8
  %68 = load ptr, ptr %12, align 8
  %69 = call ptr @strcat(ptr noundef %67, ptr noundef %68) #19
  br label %70

70:                                               ; preds = %66, %63
  %71 = load ptr, ptr %5, align 8
  %72 = load ptr, ptr %6, align 8
  %73 = call ptr @strcat(ptr noundef %71, ptr noundef %72) #19
  %74 = load ptr, ptr %5, align 8
  store ptr %74, ptr %4, align 8
  br label %75

75:                                               ; preds = %70, %48, %22, %15
  %76 = load ptr, ptr %4, align 8
  ret ptr %76
}