; Function Attrs: mustprogress nounwind willreturn uwtable
define internal fastcc noundef ptr @_ZL11path_appendPcPKcPm(ptr noundef %0, ptr noundef readonly %1, ptr nocapture noundef %2) unnamed_addr #25 {
  %4 = icmp eq ptr %1, null
  br i1 %4, label %29, label %5

5:                                                ; preds = %3
  %6 = tail call i64 @strlen(ptr noundef nonnull dereferenceable(1) %1) #36
  %7 = icmp eq i64 %6, 0
  br i1 %7, label %29, label %8

8:                                                ; preds = %5
  %.not = icmp eq ptr %0, null
  br i1 %.not, label %11, label %9

9:                                                ; preds = %8
  %10 = tail call i64 @strlen(ptr noundef nonnull dereferenceable(1) %0) #36
  br label %11

11:                                               ; preds = %9, %8
  %.028 = phi i64 [ %10, %9 ], [ 0, %8 ]
  %12 = add i64 %6, 2
  %13 = add i64 %12, %.028
  %14 = load i64, ptr %2, align 8
  %15 = icmp ult i64 %14, %13
  br i1 %15, label %16, label %25

16:                                               ; preds = %11
  %17 = shl i64 %13, 1
  %18 = tail call noalias ptr @calloc(i64 noundef %17, i64 noundef 1) #42
  %19 = icmp eq ptr %18, null
  br i1 %19, label %20, label %21

20:                                               ; preds = %16
  tail call void @free(ptr noundef %0) #33
  br label %29

21:                                               ; preds = %16
  store i64 %17, ptr %2, align 8
  br i1 %.not, label %24, label %22

22:                                               ; preds = %21
  %23 = tail call ptr @strcpy(ptr noundef nonnull dereferenceable(1) %18, ptr noundef nonnull dereferenceable(1) %0) #33
  br label %24

24:                                               ; preds = %22, %21
  tail call void @free(ptr noundef %0) #33
  br label %25

25:                                               ; preds = %24, %11
  %.029 = phi ptr [ %18, %24 ], [ %0, %11 ]
  %.not35 = icmp eq i64 %.028, 0
  br i1 %.not35, label %27, label %26

26:                                               ; preds = %25
  %strlen = tail call i64 @strlen(ptr nonnull dereferenceable(1) %.029)
  %endptr = getelementptr inbounds i8, ptr %.029, i64 %strlen
  store i16 58, ptr %endptr, align 1
  br label %27

27:                                               ; preds = %26, %25
  %28 = tail call ptr @strcat(ptr noundef nonnull dereferenceable(1) %.029, ptr noundef nonnull dereferenceable(1) %1) #33
  br label %29

29:                                               ; preds = %5, %3, %27, %20
  %.0 = phi ptr [ null, %20 ], [ %.029, %27 ], [ %0, %3 ], [ %0, %5 ]
  ret ptr %.0
}